target datalayout = "e-m:e-p270:32:32-p271:32:32-p272:64:64-i64:64-i128:128-f80:128-n8:16:32:64-S128"
target triple = "x86_64-pc-linux-gnu"

@_base64 = internal constant [65 x i8] c"ABCDEFGHIJKLMNOPQRSTUVWXYZabcdefghijklmnopqrstuvwxyz0123456789+/\00", align 16

; Function Attrs: nounwind uwtable
define internal i64 @pg_base64_encode(ptr noundef %0, i64 noundef %1, ptr noundef %2) #0 {
  %4 = alloca ptr, align 8
  %5 = alloca i64, align 8
  %6 = alloca ptr, align 8
  %7 = alloca ptr, align 8
  %8 = alloca ptr, align 8
  %9 = alloca ptr, align 8
  %10 = alloca ptr, align 8
  %11 = alloca i32, align 4
  %12 = alloca i32, align 4
  store ptr %0, ptr %4, align 8
  store i64 %1, ptr %5, align 8
  store ptr %2, ptr %6, align 8
  call void @llvm.lifetime.start.p0(i64 8, ptr %7) #6
  call void @llvm.lifetime.start.p0(i64 8, ptr %8) #6
  %13 = load ptr, ptr %6, align 8
  %14 = getelementptr inbounds i8, ptr %13, i64 76
  store ptr %14, ptr %8, align 8
  call void @llvm.lifetime.start.p0(i64 8, ptr %9) #6
  call void @llvm.lifetime.start.p0(i64 8, ptr %10) #6
  %15 = load ptr, ptr %4, align 8
  %16 = load i64, ptr %5, align 8
  %17 = getelementptr inbounds nuw i8, ptr %15, i64 %16
  store ptr %17, ptr %10, align 8
  call void @llvm.lifetime.start.p0(i64 4, ptr %11) #6
  store i32 2, ptr %11, align 4
  call void @llvm.lifetime.start.p0(i64 4, ptr %12) #6
  store i32 0, ptr %12, align 4
  %18 = load ptr, ptr %4, align 8
  store ptr %18, ptr %9, align 8
  %19 = load ptr, ptr %6, align 8
  store ptr %19, ptr %7, align 8
  br label %20

20:                                               ; preds = %80, %3
  %21 = load ptr, ptr %9, align 8
  %22 = load ptr, ptr %10, align 8
  %23 = icmp ult ptr %21, %22
  br i1 %23, label %24, label %81

24:                                               ; preds = %20
  %25 = load ptr, ptr %9, align 8
  %26 = load i8, ptr %25, align 1
  %27 = zext i8 %26 to i32
  %28 = load i32, ptr %11, align 4
  %29 = shl i32 %28, 3
  %30 = shl i32 %27, %29
  %31 = load i32, ptr %12, align 4
  %32 = or i32 %31, %30
  store i32 %32, ptr %12, align 4
  %33 = load i32, ptr %11, align 4
  %34 = add i32 %33, -1
  store i32 %34, ptr %11, align 4
  %35 = load ptr, ptr %9, align 8
  %36 = getelementptr inbounds nuw i8, ptr %35, i32 1
  store ptr %36, ptr %9, align 8
  %37 = load i32, ptr %11, align 4
  %38 = icmp slt i32 %37, 0
  br i1 %38, label %39, label %71

39:                                               ; preds = %24
  %40 = load i32, ptr %12, align 4
  %41 = lshr i32 %40, 18
  %42 = and i32 %41, 63
  %43 = zext i32 %42 to i64
  %44 = getelementptr inbounds nuw [65 x i8], ptr @_base64, i64 0, i64 %43
  %45 = load i8, ptr %44, align 1
  %46 = load ptr, ptr %7, align 8
  %47 = getelementptr inbounds nuw i8, ptr %46, i32 1
  store ptr %47, ptr %7, align 8
  store i8 %45, ptr %46, align 1
  %48 = load i32, ptr %12, align 4
  %49 = lshr i32 %48, 12
  %50 = and i32 %49, 63
  %51 = zext i32 %50 to i64
  %52 = getelementptr inbounds nuw [65 x i8], ptr @_base64, i64 0, i64 %51
  %53 = load i8, ptr %52, align 1
  %54 = load ptr, ptr %7, align 8
  %55 = getelementptr inbounds nuw i8, ptr %54, i32 1
  store ptr %55, ptr %7, align 8
  store i8 %53, ptr %54, align 1
  %56 = load i32, ptr %12, align 4
  %57 = lshr i32 %56, 6
  %58 = and i32 %57, 63
  %59 = zext i32 %58 to i64
  %60 = getelementptr inbounds nuw [65 x i8], ptr @_base64, i64 0, i64 %59
  %61 = load i8, ptr %60, align 1
  %62 = load ptr, ptr %7, align 8
  %63 = getelementptr inbounds nuw i8, ptr %62, i32 1
  store ptr %63, ptr %7, align 8
  store i8 %61, ptr %62, align 1
  %64 = load i32, ptr %12, align 4
  %65 = and i32 %64, 63
  %66 = zext i32 %65 to i64
  %67 = getelementptr inbounds nuw [65 x i8], ptr @_base64, i64 0, i64 %66
  %68 = load i8, ptr %67, align 1
  %69 = load ptr, ptr %7, align 8
  %70 = getelementptr inbounds nuw i8, ptr %69, i32 1
  store ptr %70, ptr %7, align 8
  store i8 %68, ptr %69, align 1
  store i32 2, ptr %11, align 4
  store i32 0, ptr %12, align 4
  br label %71

71:                                               ; preds = %39, %24
  %72 = load ptr, ptr %7, align 8
  %73 = load ptr, ptr %8, align 8
  %74 = icmp uge ptr %72, %73
  br i1 %74, label %75, label %80

75:                                               ; preds = %71
  %76 = load ptr, ptr %7, align 8
  %77 = getelementptr inbounds nuw i8, ptr %76, i32 1
  store ptr %77, ptr %7, align 8
  store i8 10, ptr %76, align 1
  %78 = load ptr, ptr %7, align 8
  %79 = getelementptr inbounds i8, ptr %78, i64 76
  store ptr %79, ptr %8, align 8
  br label %80

80:                                               ; preds = %75, %71
  br label %20, !llvm.loop !8

81:                                               ; preds = %20
  %82 = load i32, ptr %11, align 4
  %83 = icmp ne i32 %82, 2
  br i1 %83, label %84, label %119

84:                                               ; preds = %81
  %85 = load i32, ptr %12, align 4
  %86 = lshr i32 %85, 18
  %87 = and i32 %86, 63
  %88 = zext i32 %87 to i64
  %89 = getelementptr inbounds nuw [65 x i8], ptr @_base64, i64 0, i64 %88
  %90 = load i8, ptr %89, align 1
  %91 = load ptr, ptr %7, align 8
  %92 = getelementptr inbounds nuw i8, ptr %91, i32 1
  store ptr %92, ptr %7, align 8
  store i8 %90, ptr %91, align 1
  %93 = load i32, ptr %12, align 4
  %94 = lshr i32 %93, 12
  %95 = and i32 %94, 63
  %96 = zext i32 %95 to i64
  %97 = getelementptr inbounds nuw [65 x i8], ptr @_base64, i64 0, i64 %96
  %98 = load i8, ptr %97, align 1
  %99 = load ptr, ptr %7, align 8
  %100 = getelementptr inbounds nuw i8, ptr %99, i32 1
  store ptr %100, ptr %7, align 8
  store i8 %98, ptr %99, align 1
  %101 = load i32, ptr %11, align 4
  %102 = icmp eq i32 %101, 0
  br i1 %102, label %103, label %111

103:                                              ; preds = %84
  %104 = load i32, ptr %12, align 4
  %105 = lshr i32 %104, 6
  %106 = and i32 %105, 63
  %107 = zext i32 %106 to i64
  %108 = getelementptr inbounds nuw [65 x i8], ptr @_base64, i64 0, i64 %107
  %109 = load i8, ptr %108, align 1
  %110 = sext i8 %109 to i32
  br label %112

111:                                              ; preds = %84
  br label %112

112:                                              ; preds = %111, %103
  %113 = phi i32 [ %110, %103 ], [ 61, %111 ]
  %114 = trunc i32 %113 to i8
  %115 = load ptr, ptr %7, align 8
  %116 = getelementptr inbounds nuw i8, ptr %115, i32 1
  store ptr %116, ptr %7, align 8
  store i8 %114, ptr %115, align 1
  %117 = load ptr, ptr %7, align 8
  %118 = getelementptr inbounds nuw i8, ptr %117, i32 1
  store ptr %118, ptr %7, align 8
  store i8 61, ptr %117, align 1
  br label %119

119:                                              ; preds = %112, %81
  %120 = load ptr, ptr %7, align 8
  %121 = load ptr, ptr %6, align 8
  %122 = ptrtoint ptr %120 to i64
  %123 = ptrtoint ptr %121 to i64
  %124 = sub i64 %122, %123
  call void @llvm.lifetime.end.p0(i64 4, ptr %12) #6
  call void @llvm.lifetime.end.p0(i64 4, ptr %11) #6
  call void @llvm.lifetime.end.p0(i64 8, ptr %10) #6
  call void @llvm.lifetime.end.p0(i64 8, ptr %9) #6
  call void @llvm.lifetime.end.p0(i64 8, ptr %8) #6
  call void @llvm.lifetime.end.p0(i64 8, ptr %7) #6
  ret i64 %124
}